target datalayout = "e-m:e-p270:32:32-p271:32:32-p272:64:64-i64:64-i128:128-f80:128-n8:16:32:64-S128"
target triple = "x86_64-pc-linux-gnu"

%struct.__ncnn_allocator_t = type { ptr, ptr, ptr }
%"class.ncnn::Mat" = type { ptr, ptr, i64, i32, ptr, i32, i32, i32, i32, i32, i64 }

; Function Attrs: mustprogress uwtable
define hidden ptr @ncnn_mat_create_external_1d(i32 noundef %0, ptr noundef %1, ptr noundef %2) #1 personality ptr @__gxx_personality_v0 {
  %4 = alloca ptr, align 8
  %5 = alloca i32, align 4
  %6 = alloca ptr, align 8
  %7 = alloca i64, align 8
  %8 = alloca ptr, align 8
  %9 = alloca i32, align 4
  %10 = alloca ptr, align 8
  %11 = alloca ptr, align 8
  %12 = alloca ptr, align 8
  %13 = alloca i32, align 4
  store i32 %0, ptr %9, align 4
  store ptr %1, ptr %10, align 8
  store ptr %2, ptr %11, align 8
  %14 = call noalias noundef nonnull ptr @_Znwm(i64 noundef 72) #13
  %15 = load i32, ptr %9, align 4
  %16 = load ptr, ptr %10, align 8
  %17 = load ptr, ptr %11, align 8
  %18 = icmp ne ptr %17, null
  br i1 %18, label %19, label %23

19:                                               ; preds = %3
  %20 = load ptr, ptr %11, align 8
  %21 = getelementptr inbounds nuw %struct.__ncnn_allocator_t, ptr %20, i32 0, i32 0
  %22 = load ptr, ptr %21, align 8
  br label %24

23:                                               ; preds = %3
  br label %24

24:                                               ; preds = %23, %19
  %25 = phi ptr [ %22, %19 ], [ null, %23 ]
  store ptr %14, ptr %4, align 8
  store i32 %15, ptr %5, align 4
  store ptr %16, ptr %6, align 8
  store i64 4, ptr %7, align 8
  store ptr %25, ptr %8, align 8
  %26 = load ptr, ptr %4, align 8
  %27 = load ptr, ptr %6, align 8
  store ptr %27, ptr %26, align 8
  %28 = getelementptr inbounds nuw %"class.ncnn::Mat", ptr %26, i32 0, i32 1
  store ptr null, ptr %28, align 8
  %29 = getelementptr inbounds nuw %"class.ncnn::Mat", ptr %26, i32 0, i32 2
  %30 = load i64, ptr %7, align 8
  store i64 %30, ptr %29, align 8
  %31 = getelementptr inbounds nuw %"class.ncnn::Mat", ptr %26, i32 0, i32 3
  store i32 1, ptr %31, align 8
  %32 = getelementptr inbounds nuw %"class.ncnn::Mat", ptr %26, i32 0, i32 4
  %33 = load ptr, ptr %8, align 8
  store ptr %33, ptr %32, align 8
  %34 = getelementptr inbounds nuw %"class.ncnn::Mat", ptr %26, i32 0, i32 5
  store i32 1, ptr %34, align 8
  %35 = getelementptr inbounds nuw %"class.ncnn::Mat", ptr %26, i32 0, i32 6
  %36 = load i32, ptr %5, align 4
  store i32 %36, ptr %35, align 4
  %37 = getelementptr inbounds nuw %"class.ncnn::Mat", ptr %26, i32 0, i32 7
  store i32 1, ptr %37, align 8
  %38 = getelementptr inbounds nuw %"class.ncnn::Mat", ptr %26, i32 0, i32 8
  store i32 1, ptr %38, align 4
  %39 = getelementptr inbounds nuw %"class.ncnn::Mat", ptr %26, i32 0, i32 9
  store i32 1, ptr %39, align 8
  %40 = getelementptr inbounds nuw %"class.ncnn::Mat", ptr %26, i32 0, i32 6
  %41 = load i32, ptr %40, align 4
  %42 = sext i32 %41 to i64
  %43 = getelementptr inbounds nuw %"class.ncnn::Mat", ptr %26, i32 0, i32 10
  store i64 %42, ptr %43, align 8
  br label %44

44:                                               ; preds = %24
  ret ptr %14

45:                                               ; No predecessors!
  %46 = landingpad { ptr, i32 }
          cleanup
  %47 = extractvalue { ptr, i32 } %46, 0
  store ptr %47, ptr %12, align 8
  %48 = extractvalue { ptr, i32 } %46, 1
  store i32 %48, ptr %13, align 4
  call void @_ZdlPvm(ptr noundef %14, i64 noundef 72) #14
  br label %49

49:                                               ; preds = %45
  %50 = load ptr, ptr %12, align 8
  %51 = load i32, ptr %13, align 4
  %52 = insertvalue { ptr, i32 } poison, ptr %50, 0
  %53 = insertvalue { ptr, i32 } %52, i32 %51, 1
  resume { ptr, i32 } %53
}