; Function Attrs: mustprogress uwtable
define hidden noalias noundef nonnull ptr @ncnn_mat_create_external_1d(i32 noundef %0, ptr noundef %1, ptr noundef readonly %2) local_unnamed_addr #1 personality ptr @__gxx_personality_v0 {
  %4 = tail call noalias noundef nonnull dereferenceable(72) ptr @_Znwm(i64 noundef 72) #24
  %.not = icmp eq ptr %2, null
  br i1 %.not, label %7, label %5

5:                                                ; preds = %3
  %6 = load ptr, ptr %2, align 8
  br label %7

7:                                                ; preds = %3, %5
  %8 = phi ptr [ %6, %5 ], [ null, %3 ]
  store ptr %1, ptr %4, align 8
  %9 = getelementptr inbounds nuw i8, ptr %4, i64 8
  store ptr null, ptr %9, align 8
  %10 = getelementptr inbounds nuw i8, ptr %4, i64 16
  store i64 4, ptr %10, align 8
  %11 = getelementptr inbounds nuw i8, ptr %4, i64 24
  store i32 1, ptr %11, align 8
  %12 = getelementptr inbounds nuw i8, ptr %4, i64 32
  store ptr %8, ptr %12, align 8
  %13 = getelementptr inbounds nuw i8, ptr %4, i64 40
  store i32 1, ptr %13, align 8
  %14 = getelementptr inbounds nuw i8, ptr %4, i64 44
  store i32 %0, ptr %14, align 4
  %15 = getelementptr inbounds nuw i8, ptr %4, i64 48
  store i32 1, ptr %15, align 8
  %16 = getelementptr inbounds nuw i8, ptr %4, i64 52
  store i32 1, ptr %16, align 4
  %17 = getelementptr inbounds nuw i8, ptr %4, i64 56
  store i32 1, ptr %17, align 8
  %18 = sext i32 %0 to i64
  %19 = getelementptr inbounds nuw i8, ptr %4, i64 64
  store i64 %18, ptr %19, align 8
  ret ptr %4
}